; Function Attrs: nounwind uwtable
define ptr @l_Lean_Meta_Grind_Arith_Cutsat_findIntVal___boxed(ptr noundef %0, ptr noundef %1, ptr noundef %2, ptr noundef %3) local_unnamed_addr #1 {
  %5 = tail call ptr @l_Lean_Meta_Grind_Arith_Cutsat_DvdSolution_ge(ptr noundef readonly %0, ptr noundef %1)
  %6 = ptrtoint ptr %2 to i64
  %7 = and i64 %6, 1
  %.not.i.i.i = icmp eq i64 %7, 0
  br i1 %.not.i.i.i, label %lean_int_dec_lt.exit.i, label %8, !prof !4

8:                                                ; preds = %4
  %9 = ptrtoint ptr %5 to i64
  %10 = and i64 %9, 1
  %.not7.i.i.i = icmp eq i64 %10, 0
  br i1 %.not7.i.i.i, label %lean_int_dec_lt.exit.i, label %11, !prof !4

11:                                               ; preds = %8
  %12 = lshr i64 %6, 1
  %13 = trunc i64 %12 to i32
  %14 = lshr i64 %9, 1
  %15 = trunc i64 %14 to i32
  %16 = icmp slt i32 %13, %15
  br i1 %16, label %l_Lean_Meta_Grind_Arith_Cutsat_findIntVal.exit, label %18

lean_int_dec_lt.exit.i:                           ; preds = %8, %4
  %17 = tail call zeroext i1 @lean_int_big_lt(ptr noundef %2, ptr noundef %5) #6
  br i1 %17, label %20, label %18

18:                                               ; preds = %lean_int_dec_lt.exit.i, %11
  %19 = tail call ptr @l_Lean_Meta_Grind_Arith_Cutsat_findIntVal_go(ptr noundef readonly %0, ptr noundef %2, ptr noundef readonly %3, ptr noundef %5)
  br label %l_Lean_Meta_Grind_Arith_Cutsat_findIntVal.exit

20:                                               ; preds = %lean_int_dec_lt.exit.i
  %.pre = ptrtoint ptr %5 to i64
  %.pre22 = and i64 %.pre, 1
  %21 = icmp eq i64 %.pre22, 0
  br i1 %21, label %22, label %l_Lean_Meta_Grind_Arith_Cutsat_findIntVal.exit

22:                                               ; preds = %20
  %23 = load i32, ptr %5, align 4, !tbaa !6
  %24 = icmp sgt i32 %23, 1
  br i1 %24, label %25, label %27, !prof !5

25:                                               ; preds = %22
  %26 = add nsw i32 %23, -1
  store i32 %26, ptr %5, align 4, !tbaa !6
  br label %l_Lean_Meta_Grind_Arith_Cutsat_findIntVal.exit

27:                                               ; preds = %22
  %.not.i.i = icmp eq i32 %23, 0
  br i1 %.not.i.i, label %l_Lean_Meta_Grind_Arith_Cutsat_findIntVal.exit, label %28

28:                                               ; preds = %27
  tail call void @lean_dec_ref_cold(ptr noundef nonnull %5) #6
  br label %l_Lean_Meta_Grind_Arith_Cutsat_findIntVal.exit

l_Lean_Meta_Grind_Arith_Cutsat_findIntVal.exit:   ; preds = %11, %18, %20, %25, %27, %28
  %.0.i = phi ptr [ %19, %18 ], [ inttoptr (i64 5 to ptr), %28 ], [ inttoptr (i64 5 to ptr), %27 ], [ inttoptr (i64 5 to ptr), %25 ], [ inttoptr (i64 5 to ptr), %20 ], [ inttoptr (i64 5 to ptr), %11 ]
  %29 = ptrtoint ptr %3 to i64
  %30 = and i64 %29, 1
  %.not = icmp eq i64 %30, 0
  br i1 %.not, label %31, label %lean_dec.exit11

31:                                               ; preds = %l_Lean_Meta_Grind_Arith_Cutsat_findIntVal.exit
  %32 = load i32, ptr %3, align 4, !tbaa !6
  %33 = icmp sgt i32 %32, 1
  br i1 %33, label %34, label %36, !prof !5

34:                                               ; preds = %31
  %35 = add nsw i32 %32, -1
  store i32 %35, ptr %3, align 4, !tbaa !6
  br label %lean_dec.exit11

36:                                               ; preds = %31
  %.not.i = icmp eq i32 %32, 0
  br i1 %.not.i, label %lean_dec.exit11, label %37

37:                                               ; preds = %36
  tail call void @lean_dec_ref_cold(ptr noundef nonnull %3) #6
  br label %lean_dec.exit11

lean_dec.exit11:                                  ; preds = %37, %36, %34, %l_Lean_Meta_Grind_Arith_Cutsat_findIntVal.exit
  br i1 %.not.i.i.i, label %38, label %lean_dec.exit10

38:                                               ; preds = %lean_dec.exit11
  %39 = load i32, ptr %2, align 4, !tbaa !6
  %40 = icmp sgt i32 %39, 1
  br i1 %40, label %41, label %43, !prof !5

41:                                               ; preds = %38
  %42 = add nsw i32 %39, -1
  store i32 %42, ptr %2, align 4, !tbaa !6
  br label %lean_dec.exit10

43:                                               ; preds = %38
  %.not.i12 = icmp eq i32 %39, 0
  br i1 %.not.i12, label %lean_dec.exit10, label %44

44:                                               ; preds = %43
  tail call void @lean_dec_ref_cold(ptr noundef nonnull %2) #6
  br label %lean_dec.exit10

lean_dec.exit10:                                  ; preds = %44, %43, %41, %lean_dec.exit11
  %45 = ptrtoint ptr %1 to i64
  %46 = and i64 %45, 1
  %.not20 = icmp eq i64 %46, 0
  br i1 %.not20, label %47, label %lean_dec.exit9

47:                                               ; preds = %lean_dec.exit10
  %48 = load i32, ptr %1, align 4, !tbaa !6
  %49 = icmp sgt i32 %48, 1
  br i1 %49, label %50, label %52, !prof !5

50:                                               ; preds = %47
  %51 = add nsw i32 %48, -1
  store i32 %51, ptr %1, align 4, !tbaa !6
  br label %lean_dec.exit9

52:                                               ; preds = %47
  %.not.i14 = icmp eq i32 %48, 0
  br i1 %.not.i14, label %lean_dec.exit9, label %53

53:                                               ; preds = %52
  tail call void @lean_dec_ref_cold(ptr noundef nonnull %1) #6
  br label %lean_dec.exit9

lean_dec.exit9:                                   ; preds = %53, %52, %50, %lean_dec.exit10
  %54 = ptrtoint ptr %0 to i64
  %55 = and i64 %54, 1
  %.not21 = icmp eq i64 %55, 0
  br i1 %.not21, label %56, label %lean_dec.exit

56:                                               ; preds = %lean_dec.exit9
  %57 = load i32, ptr %0, align 4, !tbaa !6
  %58 = icmp sgt i32 %57, 1
  br i1 %58, label %59, label %61, !prof !5

59:                                               ; preds = %56
  %60 = add nsw i32 %57, -1
  store i32 %60, ptr %0, align 4, !tbaa !6
  br label %lean_dec.exit

61:                                               ; preds = %56
  %.not.i16 = icmp eq i32 %57, 0
  br i1 %.not.i16, label %lean_dec.exit, label %62

62:                                               ; preds = %61
  tail call void @lean_dec_ref_cold(ptr noundef nonnull %0) #6
  br label %lean_dec.exit

lean_dec.exit:                                    ; preds = %62, %61, %59, %lean_dec.exit9
  ret ptr %.0.i
}